target datalayout = "e-m:e-p270:32:32-p271:32:32-p272:64:64-i64:64-i128:128-f80:128-n8:16:32:64-S128"
target triple = "x86_64-pc-linux-gnu"

; Function Attrs: inlinehint nounwind uwtable
define internal void @memset_bpc(ptr noundef %0, i32 noundef %1, i32 noundef %2) #5 {
  %4 = alloca ptr, align 8
  %5 = alloca i32, align 4
  %6 = alloca i32, align 4
  %7 = alloca i32, align 4
  store ptr %0, ptr %4, align 8, !tbaa !14
  store i32 %1, ptr %5, align 4, !tbaa !19
  store i32 %2, ptr %6, align 4, !tbaa !19
  call void @llvm.lifetime.start.p0(i64 4, ptr %7) #9
  store i32 0, ptr %7, align 4, !tbaa !19
  br label %8

8:                                                ; preds = %19, %3
  %9 = load i32, ptr %7, align 4, !tbaa !19
  %10 = load i32, ptr %6, align 4, !tbaa !19
  %11 = icmp slt i32 %9, %10
  br i1 %11, label %12, label %22

12:                                               ; preds = %8
  %13 = load i32, ptr %5, align 4, !tbaa !19
  %14 = trunc i32 %13 to i16
  %15 = load ptr, ptr %4, align 8, !tbaa !14
  %16 = load i32, ptr %7, align 4, !tbaa !19
  %17 = sext i32 %16 to i64
  %18 = getelementptr inbounds i16, ptr %15, i64 %17
  store i16 %14, ptr %18, align 2, !tbaa !17
  br label %19

19:                                               ; preds = %12
  %20 = load i32, ptr %7, align 4, !tbaa !19
  %21 = add nsw i32 %20, 1
  store i32 %21, ptr %7, align 4, !tbaa !19
  br label %8, !llvm.loop !92

22:                                               ; preds = %8
  call void @llvm.lifetime.end.p0(i64 4, ptr %7) #9
  ret void
}

; Function Attrs: nounwind uwtable
define internal void @vert_left_16x16_c(ptr noundef %0, i64 noundef %1, ptr noundef %2, ptr noundef %3) #1 {
  %5 = alloca ptr, align 8
  %6 = alloca i64, align 8
  %7 = alloca ptr, align 8
  %8 = alloca ptr, align 8
  %9 = alloca ptr, align 8
  %10 = alloca ptr, align 8
  %11 = alloca i32, align 4
  %12 = alloca i32, align 4
  %13 = alloca [15 x i16], align 16
  %14 = alloca [15 x i16], align 16
  store ptr %0, ptr %5, align 8, !tbaa !10
  store i64 %1, ptr %6, align 8, !tbaa !12
  store ptr %2, ptr %7, align 8, !tbaa !10
  store ptr %3, ptr %8, align 8, !tbaa !10
  call void @llvm.lifetime.start.p0(i64 8, ptr %9) #9
  %15 = load ptr, ptr %5, align 8, !tbaa !10
  store ptr %15, ptr %9, align 8, !tbaa !14
  call void @llvm.lifetime.start.p0(i64 8, ptr %10) #9
  %16 = load ptr, ptr %8, align 8, !tbaa !10
  store ptr %16, ptr %10, align 8, !tbaa !14
  call void @llvm.lifetime.start.p0(i64 4, ptr %11) #9
  call void @llvm.lifetime.start.p0(i64 4, ptr %12) #9
  call void @llvm.lifetime.start.p0(i64 30, ptr %13) #9
  call void @llvm.lifetime.start.p0(i64 30, ptr %14) #9
  %17 = load i64, ptr %6, align 8, !tbaa !12
  %18 = udiv i64 %17, 2
  store i64 %18, ptr %6, align 8, !tbaa !12
  store i32 0, ptr %11, align 4, !tbaa !19
  br label %19

19:                                               ; preds = %72, %4
  %20 = load i32, ptr %11, align 4, !tbaa !19
  %21 = icmp slt i32 %20, 14
  br i1 %21, label %22, label %75

22:                                               ; preds = %19
  %23 = load ptr, ptr %10, align 8, !tbaa !14
  %24 = load i32, ptr %11, align 4, !tbaa !19
  %25 = sext i32 %24 to i64
  %26 = getelementptr inbounds i16, ptr %23, i64 %25
  %27 = load i16, ptr %26, align 2, !tbaa !17
  %28 = zext i16 %27 to i32
  %29 = load ptr, ptr %10, align 8, !tbaa !14
  %30 = load i32, ptr %11, align 4, !tbaa !19
  %31 = add nsw i32 %30, 1
  %32 = sext i32 %31 to i64
  %33 = getelementptr inbounds i16, ptr %29, i64 %32
  %34 = load i16, ptr %33, align 2, !tbaa !17
  %35 = zext i16 %34 to i32
  %36 = add nsw i32 %28, %35
  %37 = add nsw i32 %36, 1
  %38 = ashr i32 %37, 1
  %39 = trunc i32 %38 to i16
  %40 = load i32, ptr %11, align 4, !tbaa !19
  %41 = sext i32 %40 to i64
  %42 = getelementptr inbounds [15 x i16], ptr %13, i64 0, i64 %41
  store i16 %39, ptr %42, align 2, !tbaa !17
  %43 = load ptr, ptr %10, align 8, !tbaa !14
  %44 = load i32, ptr %11, align 4, !tbaa !19
  %45 = sext i32 %44 to i64
  %46 = getelementptr inbounds i16, ptr %43, i64 %45
  %47 = load i16, ptr %46, align 2, !tbaa !17
  %48 = zext i16 %47 to i32
  %49 = load ptr, ptr %10, align 8, !tbaa !14
  %50 = load i32, ptr %11, align 4, !tbaa !19
  %51 = add nsw i32 %50, 1
  %52 = sext i32 %51 to i64
  %53 = getelementptr inbounds i16, ptr %49, i64 %52
  %54 = load i16, ptr %53, align 2, !tbaa !17
  %55 = zext i16 %54 to i32
  %56 = mul nsw i32 %55, 2
  %57 = add nsw i32 %48, %56
  %58 = load ptr, ptr %10, align 8, !tbaa !14
  %59 = load i32, ptr %11, align 4, !tbaa !19
  %60 = add nsw i32 %59, 2
  %61 = sext i32 %60 to i64
  %62 = getelementptr inbounds i16, ptr %58, i64 %61
  %63 = load i16, ptr %62, align 2, !tbaa !17
  %64 = zext i16 %63 to i32
  %65 = add nsw i32 %57, %64
  %66 = add nsw i32 %65, 2
  %67 = ashr i32 %66, 2
  %68 = trunc i32 %67 to i16
  %69 = load i32, ptr %11, align 4, !tbaa !19
  %70 = sext i32 %69 to i64
  %71 = getelementptr inbounds [15 x i16], ptr %14, i64 0, i64 %70
  store i16 %68, ptr %71, align 2, !tbaa !17
  br label %72

72:                                               ; preds = %22
  %73 = load i32, ptr %11, align 4, !tbaa !19
  %74 = add nsw i32 %73, 1
  store i32 %74, ptr %11, align 4, !tbaa !19
  br label %19, !llvm.loop !58

75:                                               ; preds = %19
  %76 = load ptr, ptr %10, align 8, !tbaa !14
  %77 = getelementptr inbounds i16, ptr %76, i64 14
  %78 = load i16, ptr %77, align 2, !tbaa !17
  %79 = zext i16 %78 to i32
  %80 = load ptr, ptr %10, align 8, !tbaa !14
  %81 = getelementptr inbounds i16, ptr %80, i64 15
  %82 = load i16, ptr %81, align 2, !tbaa !17
  %83 = zext i16 %82 to i32
  %84 = add nsw i32 %79, %83
  %85 = add nsw i32 %84, 1
  %86 = ashr i32 %85, 1
  %87 = trunc i32 %86 to i16
  %88 = getelementptr inbounds [15 x i16], ptr %13, i64 0, i64 14
  store i16 %87, ptr %88, align 4, !tbaa !17
  %89 = load ptr, ptr %10, align 8, !tbaa !14
  %90 = getelementptr inbounds i16, ptr %89, i64 14
  %91 = load i16, ptr %90, align 2, !tbaa !17
  %92 = zext i16 %91 to i32
  %93 = load ptr, ptr %10, align 8, !tbaa !14
  %94 = getelementptr inbounds i16, ptr %93, i64 15
  %95 = load i16, ptr %94, align 2, !tbaa !17
  %96 = zext i16 %95 to i32
  %97 = mul nsw i32 %96, 3
  %98 = add nsw i32 %92, %97
  %99 = add nsw i32 %98, 2
  %100 = ashr i32 %99, 2
  %101 = trunc i32 %100 to i16
  %102 = getelementptr inbounds [15 x i16], ptr %14, i64 0, i64 14
  store i16 %101, ptr %102, align 4, !tbaa !17
  store i32 0, ptr %12, align 4, !tbaa !19
  br label %103

103:                                              ; preds = %179, %75
  %104 = load i32, ptr %12, align 4, !tbaa !19
  %105 = icmp slt i32 %104, 8
  br i1 %105, label %106, label %182

106:                                              ; preds = %103
  %107 = load ptr, ptr %9, align 8, !tbaa !14
  %108 = load i32, ptr %12, align 4, !tbaa !19
  %109 = mul nsw i32 %108, 2
  %110 = sext i32 %109 to i64
  %111 = load i64, ptr %6, align 8, !tbaa !12
  %112 = mul nsw i64 %110, %111
  %113 = getelementptr inbounds i16, ptr %107, i64 %112
  %114 = getelementptr inbounds [15 x i16], ptr %13, i64 0, i64 0
  %115 = load i32, ptr %12, align 4, !tbaa !19
  %116 = sext i32 %115 to i64
  %117 = getelementptr inbounds i16, ptr %114, i64 %116
  %118 = load i32, ptr %12, align 4, !tbaa !19
  %119 = sub nsw i32 16, %118
  %120 = sub nsw i32 %119, 1
  %121 = sext i32 %120 to i64
  %122 = mul i64 %121, 2
  call void @llvm.memcpy.p0.p0.i64(ptr align 2 %113, ptr align 2 %117, i64 %122, i1 false)
  %123 = load ptr, ptr %9, align 8, !tbaa !14
  %124 = load i32, ptr %12, align 4, !tbaa !19
  %125 = mul nsw i32 %124, 2
  %126 = sext i32 %125 to i64
  %127 = load i64, ptr %6, align 8, !tbaa !12
  %128 = mul nsw i64 %126, %127
  %129 = getelementptr inbounds i16, ptr %123, i64 %128
  %130 = getelementptr inbounds i16, ptr %129, i64 16
  %131 = load i32, ptr %12, align 4, !tbaa !19
  %132 = sext i32 %131 to i64
  %133 = sub i64 0, %132
  %134 = getelementptr inbounds i16, ptr %130, i64 %133
  %135 = getelementptr inbounds i16, ptr %134, i64 -1
  %136 = load ptr, ptr %10, align 8, !tbaa !14
  %137 = getelementptr inbounds i16, ptr %136, i64 15
  %138 = load i16, ptr %137, align 2, !tbaa !17
  %139 = zext i16 %138 to i32
  %140 = load i32, ptr %12, align 4, !tbaa !19
  %141 = add nsw i32 %140, 1
  call void @memset_bpc(ptr noundef %135, i32 noundef %139, i32 noundef %141)
  %142 = load ptr, ptr %9, align 8, !tbaa !14
  %143 = load i32, ptr %12, align 4, !tbaa !19
  %144 = mul nsw i32 %143, 2
  %145 = add nsw i32 %144, 1
  %146 = sext i32 %145 to i64
  %147 = load i64, ptr %6, align 8, !tbaa !12
  %148 = mul nsw i64 %146, %147
  %149 = getelementptr inbounds i16, ptr %142, i64 %148
  %150 = getelementptr inbounds [15 x i16], ptr %14, i64 0, i64 0
  %151 = load i32, ptr %12, align 4, !tbaa !19
  %152 = sext i32 %151 to i64
  %153 = getelementptr inbounds i16, ptr %150, i64 %152
  %154 = load i32, ptr %12, align 4, !tbaa !19
  %155 = sub nsw i32 16, %154
  %156 = sub nsw i32 %155, 1
  %157 = sext i32 %156 to i64
  %158 = mul i64 %157, 2
  call void @llvm.memcpy.p0.p0.i64(ptr align 2 %149, ptr align 2 %153, i64 %158, i1 false)
  %159 = load ptr, ptr %9, align 8, !tbaa !14
  %160 = load i32, ptr %12, align 4, !tbaa !19
  %161 = mul nsw i32 %160, 2
  %162 = add nsw i32 %161, 1
  %163 = sext i32 %162 to i64
  %164 = load i64, ptr %6, align 8, !tbaa !12
  %165 = mul nsw i64 %163, %164
  %166 = getelementptr inbounds i16, ptr %159, i64 %165
  %167 = getelementptr inbounds i16, ptr %166, i64 16
  %168 = load i32, ptr %12, align 4, !tbaa !19
  %169 = sext i32 %168 to i64
  %170 = sub i64 0, %169
  %171 = getelementptr inbounds i16, ptr %167, i64 %170
  %172 = getelementptr inbounds i16, ptr %171, i64 -1
  %173 = load ptr, ptr %10, align 8, !tbaa !14
  %174 = getelementptr inbounds i16, ptr %173, i64 15
  %175 = load i16, ptr %174, align 2, !tbaa !17
  %176 = zext i16 %175 to i32
  %177 = load i32, ptr %12, align 4, !tbaa !19
  %178 = add nsw i32 %177, 1
  call void @memset_bpc(ptr noundef %172, i32 noundef %176, i32 noundef %178)
  br label %179

179:                                              ; preds = %106
  %180 = load i32, ptr %12, align 4, !tbaa !19
  %181 = add nsw i32 %180, 1
  store i32 %181, ptr %12, align 4, !tbaa !19
  br label %103, !llvm.loop !59

182:                                              ; preds = %103
  call void @llvm.lifetime.end.p0(i64 30, ptr %14) #9
  call void @llvm.lifetime.end.p0(i64 30, ptr %13) #9
  call void @llvm.lifetime.end.p0(i64 4, ptr %12) #9
  call void @llvm.lifetime.end.p0(i64 4, ptr %11) #9
  call void @llvm.lifetime.end.p0(i64 8, ptr %10) #9
  call void @llvm.lifetime.end.p0(i64 8, ptr %9) #9
  ret void
}