; Function Attrs: nofree norecurse nosync nounwind memory(argmem: readwrite) uwtable
define internal void @vert_left_16x16_c(ptr noundef writeonly captures(none) %0, i64 noundef %1, ptr readnone captures(none) %2, ptr noundef readonly captures(none) %3) #2 {
  %5 = alloca [15 x i16], align 16
  %6 = alloca [15 x i16], align 16
  call void @llvm.lifetime.start.p0(i64 30, ptr nonnull %5) #12
  call void @llvm.lifetime.start.p0(i64 30, ptr nonnull %6) #12
  %.pre = load i16, ptr %3, align 2, !tbaa !9
  %invariant.gep = getelementptr inbounds nuw i8, ptr %3, i64 4
  br label %7

7:                                                ; preds = %4, %7
  %8 = phi i16 [ %.pre, %4 ], [ %11, %7 ]
  %indvars.iv = phi i64 [ 0, %4 ], [ %indvars.iv.next, %7 ]
  %9 = zext i16 %8 to i32
  %indvars.iv.next = add nuw nsw i64 %indvars.iv, 1
  %10 = getelementptr inbounds nuw i16, ptr %3, i64 %indvars.iv.next
  %11 = load i16, ptr %10, align 2, !tbaa !9
  %12 = zext i16 %11 to i32
  %13 = add nuw nsw i32 %9, 1
  %14 = add nuw nsw i32 %13, %12
  %15 = lshr i32 %14, 1
  %16 = trunc nuw i32 %15 to i16
  %17 = getelementptr inbounds nuw [15 x i16], ptr %5, i64 0, i64 %indvars.iv
  store i16 %16, ptr %17, align 2, !tbaa !9
  %18 = shl nuw nsw i32 %12, 1
  %gep = getelementptr inbounds nuw i16, ptr %invariant.gep, i64 %indvars.iv
  %19 = load i16, ptr %gep, align 2, !tbaa !9
  %20 = zext i16 %19 to i32
  %21 = add nuw nsw i32 %9, 2
  %22 = add nuw nsw i32 %21, %18
  %23 = add nuw nsw i32 %22, %20
  %24 = lshr i32 %23, 2
  %25 = trunc nuw i32 %24 to i16
  %26 = getelementptr inbounds nuw [15 x i16], ptr %6, i64 0, i64 %indvars.iv
  store i16 %25, ptr %26, align 2, !tbaa !9
  %exitcond.not = icmp eq i64 %indvars.iv.next, 14
  br i1 %exitcond.not, label %27, label %7, !llvm.loop !49

27:                                               ; preds = %7
  %28 = lshr i64 %1, 1
  %29 = getelementptr inbounds nuw i8, ptr %3, i64 28
  %30 = load i16, ptr %29, align 2, !tbaa !9
  %31 = zext i16 %30 to i32
  %32 = getelementptr inbounds nuw i8, ptr %3, i64 30
  %33 = load i16, ptr %32, align 2, !tbaa !9
  %34 = zext i16 %33 to i32
  %35 = add nuw nsw i32 %31, 1
  %36 = add nuw nsw i32 %35, %34
  %37 = lshr i32 %36, 1
  %38 = trunc nuw i32 %37 to i16
  %39 = getelementptr inbounds nuw i8, ptr %5, i64 28
  store i16 %38, ptr %39, align 4, !tbaa !9
  %40 = mul nuw nsw i32 %34, 3
  %41 = add nuw nsw i32 %31, 2
  %42 = add nuw nsw i32 %41, %40
  %43 = lshr i32 %42, 2
  %44 = trunc nuw i32 %43 to i16
  %45 = getelementptr inbounds nuw i8, ptr %6, i64 28
  store i16 %44, ptr %45, align 4, !tbaa !9
  br label %46

46:                                               ; preds = %27, %memset_bpc.exit49
  %indvars.iv53 = phi i64 [ 0, %27 ], [ %indvars.iv.next54, %memset_bpc.exit49 ]
  %47 = shl nuw nsw i64 %indvars.iv53, 1
  %48 = mul nuw nsw i64 %28, %47
  %49 = getelementptr inbounds nuw i16, ptr %0, i64 %48
  %50 = getelementptr inbounds nuw i16, ptr %5, i64 %indvars.iv53
  %51 = sub nuw nsw i64 30, %47
  call void @llvm.memcpy.p0.p0.i64(ptr align 2 %49, ptr nonnull align 2 %50, i64 %51, i1 false)
  %52 = getelementptr inbounds nuw i8, ptr %49, i64 32
  %53 = sub nsw i64 0, %indvars.iv53
  %54 = getelementptr inbounds i16, ptr %52, i64 %53
  %55 = getelementptr inbounds i8, ptr %54, i64 -2
  %56 = load i16, ptr %32, align 2, !tbaa !9
  %indvars.iv.next54 = add nuw nsw i64 %indvars.iv53, 1
  br label %57

57:                                               ; preds = %57, %46
  %indvars.iv.i = phi i64 [ 0, %46 ], [ %indvars.iv.next.i, %57 ]
  %58 = getelementptr inbounds nuw i16, ptr %55, i64 %indvars.iv.i
  store i16 %56, ptr %58, align 2, !tbaa !9
  %indvars.iv.next.i = add nuw nsw i64 %indvars.iv.i, 1
  %exitcond.not.i = icmp eq i64 %indvars.iv.i, %indvars.iv53
  br i1 %exitcond.not.i, label %memset_bpc.exit, label %57, !llvm.loop !17

memset_bpc.exit:                                  ; preds = %57
  %59 = or disjoint i64 %47, 1
  %60 = mul nuw nsw i64 %28, %59
  %61 = getelementptr inbounds nuw i16, ptr %0, i64 %60
  %62 = getelementptr inbounds nuw i16, ptr %6, i64 %indvars.iv53
  call void @llvm.memcpy.p0.p0.i64(ptr align 2 %61, ptr nonnull align 2 %62, i64 %51, i1 false)
  %63 = getelementptr inbounds nuw i8, ptr %61, i64 32
  %64 = getelementptr inbounds i16, ptr %63, i64 %53
  %65 = getelementptr inbounds i8, ptr %64, i64 -2
  %66 = load i16, ptr %32, align 2, !tbaa !9
  br label %67

67:                                               ; preds = %67, %memset_bpc.exit
  %indvars.iv.i46 = phi i64 [ 0, %memset_bpc.exit ], [ %indvars.iv.next.i47, %67 ]
  %68 = getelementptr inbounds nuw i16, ptr %65, i64 %indvars.iv.i46
  store i16 %66, ptr %68, align 2, !tbaa !9
  %indvars.iv.next.i47 = add nuw nsw i64 %indvars.iv.i46, 1
  %exitcond.not.i48 = icmp eq i64 %indvars.iv.i46, %indvars.iv53
  br i1 %exitcond.not.i48, label %memset_bpc.exit49, label %67, !llvm.loop !17

memset_bpc.exit49:                                ; preds = %67
  %exitcond56.not = icmp eq i64 %indvars.iv.next54, 8
  br i1 %exitcond56.not, label %69, label %46, !llvm.loop !50

69:                                               ; preds = %memset_bpc.exit49
  call void @llvm.lifetime.end.p0(i64 30, ptr nonnull %6) #12
  call void @llvm.lifetime.end.p0(i64 30, ptr nonnull %5) #12
  ret void
}